target datalayout = "e-m:e-p270:32:32-p271:32:32-p272:64:64-i64:64-i128:128-f80:128-n8:16:32:64-S128"
target triple = "x86_64-unknown-linux-gnu"

%"struct.std::_Vector_base" = type { %"struct.std::_Vector_base<double, std::allocator<double>>::_Vector_impl" }
%"struct.std::_Vector_base<double, std::allocator<double>>::_Vector_impl" = type { %"struct.std::_Vector_base<double, std::allocator<double>>::_Vector_impl_data" }
%"struct.std::_Vector_base<double, std::allocator<double>>::_Vector_impl_data" = type { ptr, ptr, ptr }

; Function Attrs: mustprogress nounwind uwtable
define linkonce_odr noundef nonnull align 8 dereferenceable(8) ptr @_ZNKSt6vectorIdSaIdEEixEm(ptr noundef nonnull align 8 dereferenceable(24) %this, i64 noundef %__n) #2 comdat align 2 {
entry:
  %this.addr = alloca ptr, align 8
  %__n.addr = alloca i64, align 8
  store ptr %this, ptr %this.addr, align 8, !tbaa !3
  store i64 %__n, ptr %__n.addr, align 8, !tbaa !28
  %this1 = load ptr, ptr %this.addr, align 8
  %_M_impl = getelementptr inbounds nuw %"struct.std::_Vector_base", ptr %this1, i32 0, i32 0
  %_M_start = getelementptr inbounds nuw %"struct.std::_Vector_base<double, std::allocator<double>>::_Vector_impl_data", ptr %_M_impl, i32 0, i32 0
  %0 = load ptr, ptr %_M_start, align 8, !tbaa !34
  %1 = load i64, ptr %__n.addr, align 8, !tbaa !28
  %add.ptr = getelementptr inbounds nuw double, ptr %0, i64 %1
  ret ptr %add.ptr
}

; Function Attrs: mustprogress nounwind uwtable
define noundef zeroext i1 @_ZNK8QuantLib21TriggeredSwapExercise8exerciseEmRKSt6vectorIdSaIdEES5_(ptr noundef nonnull align 8 dereferenceable(248) %this, i64 noundef %0, ptr noundef nonnull align 8 dereferenceable(24) %parameters, ptr noundef nonnull align 8 dereferenceable(24) %variables) unnamed_addr #2 align 2 {
entry:
  %this.addr = alloca ptr, align 8
  %.addr = alloca i64, align 8
  %parameters.addr = alloca ptr, align 8
  %variables.addr = alloca ptr, align 8
  store ptr %this, ptr %this.addr, align 8, !tbaa !3
  store i64 %0, ptr %.addr, align 8, !tbaa !28
  store ptr %parameters, ptr %parameters.addr, align 8, !tbaa !3
  store ptr %variables, ptr %variables.addr, align 8, !tbaa !3
  %1 = load ptr, ptr %variables.addr, align 8, !tbaa !3
  %call = call noundef nonnull align 8 dereferenceable(8) ptr @_ZNKSt6vectorIdSaIdEEixEm(ptr noundef nonnull align 8 dereferenceable(24) %1, i64 noundef 0) #16
  %2 = load double, ptr %call, align 8, !tbaa !29
  %3 = load ptr, ptr %parameters.addr, align 8, !tbaa !3
  %call2 = call noundef nonnull align 8 dereferenceable(8) ptr @_ZNKSt6vectorIdSaIdEEixEm(ptr noundef nonnull align 8 dereferenceable(24) %3, i64 noundef 0) #16
  %4 = load double, ptr %call2, align 8, !tbaa !29
  %cmp = fcmp oge double %2, %4
  ret i1 %cmp
}

; Function Attrs: uwtable
define noundef zeroext i1 @_ZThn8_NK8QuantLib21TriggeredSwapExercise8exerciseEmRKSt6vectorIdSaIdEES5_(ptr noundef %this, i64 noundef %0, ptr noundef nonnull align 8 dereferenceable(24) %parameters, ptr noundef nonnull align 8 dereferenceable(24) %variables) unnamed_addr #7 align 2 {
entry:
  %this.addr = alloca ptr, align 8
  %.addr = alloca i64, align 8
  %parameters.addr = alloca ptr, align 8
  %variables.addr = alloca ptr, align 8
  store ptr %this, ptr %this.addr, align 8, !tbaa !3
  store i64 %0, ptr %.addr, align 8, !tbaa !28
  store ptr %parameters, ptr %parameters.addr, align 8, !tbaa !3
  store ptr %variables, ptr %variables.addr, align 8, !tbaa !3
  %this1 = load ptr, ptr %this.addr, align 8
  %1 = getelementptr inbounds i8, ptr %this1, i64 -8
  %2 = load i64, ptr %.addr, align 8, !tbaa !28
  %3 = load ptr, ptr %parameters.addr, align 8
  %4 = load ptr, ptr %variables.addr, align 8
  %call = tail call noundef zeroext i1 @_ZNK8QuantLib21TriggeredSwapExercise8exerciseEmRKSt6vectorIdSaIdEES5_(ptr noundef nonnull align 8 dereferenceable(248) %1, i64 noundef %2, ptr noundef nonnull align 8 dereferenceable(24) %3, ptr noundef nonnull align 8 dereferenceable(24) %4)
  ret i1 %call
}