; Function Attrs: mustprogress nofree norecurse nosync nounwind willreturn memory(read, inaccessiblemem: none) uwtable
define noundef zeroext i1 @_ZThn8_NK8QuantLib21TriggeredSwapExercise8exerciseEmRKSt6vectorIdSaIdEES5_(ptr nocapture readnone %this, i64 %0, ptr nocapture noundef nonnull readonly align 8 dereferenceable(24) %parameters, ptr nocapture noundef nonnull readonly align 8 dereferenceable(24) %variables) unnamed_addr #9 align 2 {
entry:
  %1 = load ptr, ptr %variables, align 8, !tbaa !10
  %2 = load double, ptr %1, align 8, !tbaa !38
  %3 = load ptr, ptr %parameters, align 8, !tbaa !10
  %4 = load double, ptr %3, align 8, !tbaa !38
  %cmp.i = fcmp oge double %2, %4
  ret i1 %cmp.i
}